target datalayout = "e-m:e-p270:32:32-p271:32:32-p272:64:64-i64:64-i128:128-f80:128-n8:16:32:64-S128"
target triple = "x86_64-pc-linux-gnu"

%struct.Clu_Man_t_ = type { i32, i32, i32, i32, i32, i32, i32, i32, i32, i32, i32, i32, i32, i32, i32, ptr, ptr, ptr, ptr, i32, i32, i32, ptr, ptr, ptr, i32, i32, i32, i32, ptr, ptr, ptr, i32, i32 }
%struct.Vec_Int_t_ = type { i32, i32, ptr }

@.str.20 = private unnamed_addr constant [37 x i8] c"SUMMARY: Total proved clauses = %d. \00", align 1
@.str.21 = private unnamed_addr constant [17 x i8] c"Clause per lit: \00", align 1
@.str.22 = private unnamed_addr constant [7 x i8] c"%d=%d \00", align 1
@.str.23 = private unnamed_addr constant [7 x i8] c">7=%d \00", align 1
@.str.24 = private unnamed_addr constant [2 x i8] c"\0A\00", align 1

; Function Attrs: inlinehint nounwind uwtable
define internal i32 @Vec_IntEntry(ptr noundef %0, i32 noundef %1) #2 {
  %3 = alloca ptr, align 8
  %4 = alloca i32, align 4
  store ptr %0, ptr %3, align 8, !tbaa !90
  store i32 %1, ptr %4, align 4, !tbaa !21
  %5 = load ptr, ptr %3, align 8, !tbaa !90
  %6 = getelementptr inbounds nuw %struct.Vec_Int_t_, ptr %5, i32 0, i32 2
  %7 = load ptr, ptr %6, align 8, !tbaa !93
  %8 = load i32, ptr %4, align 4, !tbaa !21
  %9 = sext i32 %8 to i64
  %10 = getelementptr inbounds i32, ptr %7, i64 %9
  %11 = load i32, ptr %10, align 4, !tbaa !21
  ret i32 %11
}

; Function Attrs: inlinehint nounwind uwtable
define internal i32 @Vec_IntSize(ptr noundef %0) #2 {
  %2 = alloca ptr, align 8
  store ptr %0, ptr %2, align 8, !tbaa !90
  %3 = load ptr, ptr %2, align 8, !tbaa !90
  %4 = getelementptr inbounds nuw %struct.Vec_Int_t_, ptr %3, i32 0, i32 1
  %5 = load i32, ptr %4, align 4, !tbaa !91
  ret i32 %5
}

; Function Attrs: inlinehint nounwind uwtable
define internal ptr @Vec_IntArray(ptr noundef %0) #2 {
  %2 = alloca ptr, align 8
  store ptr %0, ptr %2, align 8, !tbaa !90
  %3 = load ptr, ptr %2, align 8, !tbaa !90
  %4 = getelementptr inbounds nuw %struct.Vec_Int_t_, ptr %3, i32 0, i32 2
  %5 = load ptr, ptr %4, align 8, !tbaa !93
  ret ptr %5
}

; Function Attrs: nounwind uwtable
define void @Fra_ClausPrintIndClauses(ptr noundef %0) #0 {
  %2 = alloca ptr, align 8
  %3 = alloca [9 x i32], align 16
  %4 = alloca ptr, align 8
  %5 = alloca i32, align 4
  %6 = alloca i32, align 4
  %7 = alloca i32, align 4
  store ptr %0, ptr %2, align 8, !tbaa !3
  call void @llvm.lifetime.start.p0(i64 36, ptr %3) #11
  call void @llvm.memset.p0.i64(ptr align 16 %3, i8 0, i64 36, i1 false)
  call void @llvm.lifetime.start.p0(i64 8, ptr %4) #11
  call void @llvm.lifetime.start.p0(i64 4, ptr %5) #11
  call void @llvm.lifetime.start.p0(i64 4, ptr %6) #11
  call void @llvm.lifetime.start.p0(i64 4, ptr %7) #11
  store i32 0, ptr %5, align 4, !tbaa !21
  %8 = load ptr, ptr %2, align 8, !tbaa !3
  %9 = getelementptr inbounds nuw %struct.Clu_Man_t_, ptr %8, i32 0, i32 29
  %10 = load ptr, ptr %9, align 8, !tbaa !142
  %11 = call ptr @Vec_IntArray(ptr noundef %10)
  store ptr %11, ptr %4, align 8, !tbaa !42
  store i32 0, ptr %7, align 4, !tbaa !21
  br label %12

12:                                               ; preds = %46, %1
  %13 = load i32, ptr %7, align 4, !tbaa !21
  %14 = load ptr, ptr %2, align 8, !tbaa !3
  %15 = getelementptr inbounds nuw %struct.Clu_Man_t_, ptr %14, i32 0, i32 30
  %16 = load ptr, ptr %15, align 8, !tbaa !141
  %17 = call i32 @Vec_IntSize(ptr noundef %16)
  %18 = icmp slt i32 %13, %17
  br i1 %18, label %19, label %25

19:                                               ; preds = %12
  %20 = load ptr, ptr %2, align 8, !tbaa !3
  %21 = getelementptr inbounds nuw %struct.Clu_Man_t_, ptr %20, i32 0, i32 30
  %22 = load ptr, ptr %21, align 8, !tbaa !141
  %23 = load i32, ptr %7, align 4, !tbaa !21
  %24 = call i32 @Vec_IntEntry(ptr noundef %22, i32 noundef %23)
  store i32 %24, ptr %6, align 4, !tbaa !21
  br label %25

25:                                               ; preds = %19, %12
  %26 = phi i1 [ false, %12 ], [ true, %19 ]
  br i1 %26, label %27, label %49

27:                                               ; preds = %25
  %28 = load i32, ptr %6, align 4, !tbaa !21
  %29 = load i32, ptr %5, align 4, !tbaa !21
  %30 = sub nsw i32 %28, %29
  %31 = icmp sge i32 %30, 8
  br i1 %31, label %32, label %36

32:                                               ; preds = %27
  %33 = getelementptr inbounds [9 x i32], ptr %3, i64 0, i64 8
  %34 = load i32, ptr %33, align 16, !tbaa !21
  %35 = add nsw i32 %34, 1
  store i32 %35, ptr %33, align 16, !tbaa !21
  br label %44

36:                                               ; preds = %27
  %37 = load i32, ptr %6, align 4, !tbaa !21
  %38 = load i32, ptr %5, align 4, !tbaa !21
  %39 = sub nsw i32 %37, %38
  %40 = sext i32 %39 to i64
  %41 = getelementptr inbounds [9 x i32], ptr %3, i64 0, i64 %40
  %42 = load i32, ptr %41, align 4, !tbaa !21
  %43 = add nsw i32 %42, 1
  store i32 %43, ptr %41, align 4, !tbaa !21
  br label %44

44:                                               ; preds = %36, %32
  %45 = load i32, ptr %6, align 4, !tbaa !21
  store i32 %45, ptr %5, align 4, !tbaa !21
  br label %46

46:                                               ; preds = %44
  %47 = load i32, ptr %7, align 4, !tbaa !21
  %48 = add nsw i32 %47, 1
  store i32 %48, ptr %7, align 4, !tbaa !21
  br label %12, !llvm.loop !198

49:                                               ; preds = %25
  %50 = load ptr, ptr %2, align 8, !tbaa !3
  %51 = getelementptr inbounds nuw %struct.Clu_Man_t_, ptr %50, i32 0, i32 30
  %52 = load ptr, ptr %51, align 8, !tbaa !141
  %53 = call i32 @Vec_IntSize(ptr noundef %52)
  %54 = call i32 (ptr, ...) @printf(ptr noundef @.str.20, i32 noundef %53)
  %55 = call i32 (ptr, ...) @printf(ptr noundef @.str.21)
  store i32 0, ptr %7, align 4, !tbaa !21
  br label %56

56:                                               ; preds = %73, %49
  %57 = load i32, ptr %7, align 4, !tbaa !21
  %58 = icmp slt i32 %57, 8
  br i1 %58, label %59, label %76

59:                                               ; preds = %56
  %60 = load i32, ptr %7, align 4, !tbaa !21
  %61 = sext i32 %60 to i64
  %62 = getelementptr inbounds [9 x i32], ptr %3, i64 0, i64 %61
  %63 = load i32, ptr %62, align 4, !tbaa !21
  %64 = icmp ne i32 %63, 0
  br i1 %64, label %65, label %72

65:                                               ; preds = %59
  %66 = load i32, ptr %7, align 4, !tbaa !21
  %67 = load i32, ptr %7, align 4, !tbaa !21
  %68 = sext i32 %67 to i64
  %69 = getelementptr inbounds [9 x i32], ptr %3, i64 0, i64 %68
  %70 = load i32, ptr %69, align 4, !tbaa !21
  %71 = call i32 (ptr, ...) @printf(ptr noundef @.str.22, i32 noundef %66, i32 noundef %70)
  br label %72

72:                                               ; preds = %65, %59
  br label %73

73:                                               ; preds = %72
  %74 = load i32, ptr %7, align 4, !tbaa !21
  %75 = add nsw i32 %74, 1
  store i32 %75, ptr %7, align 4, !tbaa !21
  br label %56, !llvm.loop !199

76:                                               ; preds = %56
  %77 = getelementptr inbounds [9 x i32], ptr %3, i64 0, i64 8
  %78 = load i32, ptr %77, align 16, !tbaa !21
  %79 = icmp ne i32 %78, 0
  br i1 %79, label %80, label %84

80:                                               ; preds = %76
  %81 = getelementptr inbounds [9 x i32], ptr %3, i64 0, i64 8
  %82 = load i32, ptr %81, align 16, !tbaa !21
  %83 = call i32 (ptr, ...) @printf(ptr noundef @.str.23, i32 noundef %82)
  br label %84

84:                                               ; preds = %80, %76
  %85 = call i32 (ptr, ...) @printf(ptr noundef @.str.24)
  call void @llvm.lifetime.end.p0(i64 4, ptr %7) #11
  call void @llvm.lifetime.end.p0(i64 4, ptr %6) #11
  call void @llvm.lifetime.end.p0(i64 4, ptr %5) #11
  call void @llvm.lifetime.end.p0(i64 8, ptr %4) #11
  call void @llvm.lifetime.end.p0(i64 36, ptr %3) #11
  ret void
}