; Function Attrs: nofree nounwind uwtable
define void @Fra_ClausPrintIndClauses(ptr noundef readonly captures(none) %0) local_unnamed_addr #13 {
  %2 = alloca [9 x i32], align 16
  call void @llvm.lifetime.start.p0(i64 36, ptr nonnull %2) #23
  call void @llvm.memset.p0.i64(ptr noundef nonnull align 16 dereferenceable(36) %2, i8 0, i64 36, i1 false)
  %3 = getelementptr inbounds nuw i8, ptr %0, i64 160
  %4 = load ptr, ptr %3, align 8, !tbaa !134
  %5 = getelementptr i8, ptr %4, i64 4
  %.val21 = load i32, ptr %5, align 4, !tbaa !77
  %6 = icmp sgt i32 %.val21, 0
  br i1 %6, label %.lr.ph, label %.critedge

.lr.ph:                                           ; preds = %1
  %7 = getelementptr i8, ptr %4, i64 8
  %.val22 = load ptr, ptr %7, align 8, !tbaa !79
  %8 = getelementptr inbounds nuw i8, ptr %2, i64 32
  %wide.trip.count = zext nneg i32 %.val21 to i64
  br label %9

9:                                                ; preds = %.lr.ph, %22
  %indvars.iv = phi i64 [ 0, %.lr.ph ], [ %indvars.iv.next, %22 ]
  %.01624 = phi i32 [ 0, %.lr.ph ], [ %11, %22 ]
  %10 = getelementptr inbounds nuw i32, ptr %.val22, i64 %indvars.iv
  %11 = load i32, ptr %10, align 4, !tbaa !38
  %12 = sub nsw i32 %11, %.01624
  %13 = icmp sgt i32 %12, 7
  br i1 %13, label %14, label %17

14:                                               ; preds = %9
  %15 = load i32, ptr %8, align 16, !tbaa !38
  %16 = add nsw i32 %15, 1
  store i32 %16, ptr %8, align 16, !tbaa !38
  br label %22

17:                                               ; preds = %9
  %18 = sext i32 %12 to i64
  %19 = getelementptr inbounds [9 x i32], ptr %2, i64 0, i64 %18
  %20 = load i32, ptr %19, align 4, !tbaa !38
  %21 = add nsw i32 %20, 1
  store i32 %21, ptr %19, align 4, !tbaa !38
  br label %22

22:                                               ; preds = %17, %14
  %indvars.iv.next = add nuw nsw i64 %indvars.iv, 1
  %exitcond.not = icmp eq i64 %indvars.iv.next, %wide.trip.count
  br i1 %exitcond.not, label %.critedge, label %9, !llvm.loop !190

.critedge:                                        ; preds = %22, %1
  %23 = tail call i32 (ptr, ...) @printf(ptr noundef nonnull dereferenceable(1) @.str.20, i32 noundef %.val21)
  %24 = tail call i32 (ptr, ...) @printf(ptr noundef nonnull dereferenceable(1) @.str.21)
  br label %25

25:                                               ; preds = %.critedge, %31
  %indvars.iv28 = phi i64 [ 0, %.critedge ], [ %indvars.iv.next29, %31 ]
  %26 = getelementptr inbounds nuw [9 x i32], ptr %2, i64 0, i64 %indvars.iv28
  %27 = load i32, ptr %26, align 4, !tbaa !38
  %.not20 = icmp eq i32 %27, 0
  br i1 %.not20, label %31, label %28

28:                                               ; preds = %25
  %29 = trunc nuw nsw i64 %indvars.iv28 to i32
  %30 = tail call i32 (ptr, ...) @printf(ptr noundef nonnull dereferenceable(1) @.str.22, i32 noundef %29, i32 noundef %27)
  br label %31

31:                                               ; preds = %25, %28
  %indvars.iv.next29 = add nuw nsw i64 %indvars.iv28, 1
  %exitcond31.not = icmp eq i64 %indvars.iv.next29, 8
  br i1 %exitcond31.not, label %32, label %25, !llvm.loop !191

32:                                               ; preds = %31
  %33 = getelementptr inbounds nuw i8, ptr %2, i64 32
  %34 = load i32, ptr %33, align 16, !tbaa !38
  %.not = icmp eq i32 %34, 0
  br i1 %.not, label %37, label %35

35:                                               ; preds = %32
  %36 = tail call i32 (ptr, ...) @printf(ptr noundef nonnull dereferenceable(1) @.str.23, i32 noundef %34)
  br label %37

37:                                               ; preds = %35, %32
  %putchar = tail call i32 @putchar(i32 10)
  call void @llvm.lifetime.end.p0(i64 36, ptr nonnull %2) #23
  ret void
}